; ModuleID = '60/1842.c'
source_filename = "60/1842.c"
target datalayout = "e-m:e-p270:32:32-p271:32:32-p272:64:64-i64:64-f80:128-n8:16:32:64-S128"
target triple = "x86_64-pc-linux-gnu"

@.str = private unnamed_addr constant [3 x i8] c"%d\00", align 1
@.str.1 = private unnamed_addr constant [6 x i8] c"empty\00", align 1
@.str.2 = private unnamed_addr constant [7 x i8] c"%d %d\0A\00", align 1

; Function Attrs: noinline nounwind uwtable
define dso_local i32 @main() #0 {
  %1 = alloca i32, align 4
  %2 = alloca i32, align 4
  %3 = alloca [10000 x i32], align 16
  %4 = alloca i32, align 4
  %5 = alloca i32, align 4
  %6 = alloca i32, align 4
  store i32 0, i32* %1, align 4
  %7 = call i32 (i8*, ...) @__isoc99_scanf(i8* getelementptr inbounds ([3 x i8], [3 x i8]* @.str, i64 0, i64 0), i32* %4)
  %8 = load i32, i32* %4, align 4
  %9 = icmp slt i32 %8, 5
  br i1 %9, label %10, label %12

10:                                               ; preds = %0
  %11 = call i32 (i8*, ...) @printf(i8* getelementptr inbounds ([6 x i8], [6 x i8]* @.str.1, i64 0, i64 0))
  br label %12

12:                                               ; preds = %10, %0
  store i32 1, i32* %6, align 4
  store i32 3, i32* %2, align 4
  br label %13

13:                                               ; preds = %50, %12
  %14 = load i32, i32* %2, align 4
  %15 = load i32, i32* %4, align 4
  %16 = icmp sle i32 %14, %15
  br i1 %16, label %17, label %53

17:                                               ; preds = %13
  store i32 2, i32* %5, align 4
  br label %18

18:                                               ; preds = %32, %17
  %19 = load i32, i32* %5, align 4
  %20 = sitofp i32 %19 to double
  %21 = load i32, i32* %2, align 4
  %22 = sitofp i32 %21 to double
  %23 = call double @sqrt(double %22) #3
  %24 = fcmp ole double %20, %23
  br i1 %24, label %25, label %35

25:                                               ; preds = %18
  %26 = load i32, i32* %2, align 4
  %27 = load i32, i32* %5, align 4
  %28 = srem i32 %26, %27
  %29 = icmp eq i32 %28, 0
  br i1 %29, label %30, label %31

30:                                               ; preds = %25
  br label %35

31:                                               ; preds = %25
  br label %32

32:                                               ; preds = %31
  %33 = load i32, i32* %5, align 4
  %34 = add nsw i32 %33, 1
  store i32 %34, i32* %5, align 4
  br label %18

35:                                               ; preds = %30, %18
  %36 = load i32, i32* %5, align 4
  %37 = sitofp i32 %36 to double
  %38 = load i32, i32* %2, align 4
  %39 = sitofp i32 %38 to double
  %40 = call double @sqrt(double %39) #3
  %41 = fcmp ogt double %37, %40
  br i1 %41, label %42, label %49

42:                                               ; preds = %35
  %43 = load i32, i32* %2, align 4
  %44 = load i32, i32* %6, align 4
  %45 = sext i32 %44 to i64
  %46 = getelementptr inbounds [10000 x i32], [10000 x i32]* %3, i64 0, i64 %45
  store i32 %43, i32* %46, align 4
  %47 = load i32, i32* %6, align 4
  %48 = add nsw i32 %47, 1
  store i32 %48, i32* %6, align 4
  br label %49

49:                                               ; preds = %42, %35
  br label %50

50:                                               ; preds = %49
  %51 = load i32, i32* %2, align 4
  %52 = add nsw i32 %51, 2
  store i32 %52, i32* %2, align 4
  br label %13

53:                                               ; preds = %13
  %54 = load i32, i32* %6, align 4
  %55 = icmp sgt i32 %54, 1
  br i1 %55, label %56, label %89

56:                                               ; preds = %53
  store i32 1, i32* %6, align 4
  br label %57

57:                                               ; preds = %85, %56
  %58 = load i32, i32* %6, align 4
  %59 = load i32, i32* %4, align 4
  %60 = icmp sle i32 %58, %59
  br i1 %60, label %61, label %88

61:                                               ; preds = %57
  %62 = load i32, i32* %6, align 4
  %63 = add nsw i32 %62, 1
  %64 = sext i32 %63 to i64
  %65 = getelementptr inbounds [10000 x i32], [10000 x i32]* %3, i64 0, i64 %64
  %66 = load i32, i32* %65, align 4
  %67 = load i32, i32* %6, align 4
  %68 = sext i32 %67 to i64
  %69 = getelementptr inbounds [10000 x i32], [10000 x i32]* %3, i64 0, i64 %68
  %70 = load i32, i32* %69, align 4
  %71 = sub nsw i32 %66, %70
  %72 = icmp eq i32 %71, 2
  br i1 %72, label %73, label %84

73:                                               ; preds = %61
  %74 = load i32, i32* %6, align 4
  %75 = sext i32 %74 to i64
  %76 = getelementptr inbounds [10000 x i32], [10000 x i32]* %3, i64 0, i64 %75
  %77 = load i32, i32* %76, align 4
  %78 = load i32, i32* %6, align 4
  %79 = add nsw i32 %78, 1
  %80 = sext i32 %79 to i64
  %81 = getelementptr inbounds [10000 x i32], [10000 x i32]* %3, i64 0, i64 %80
  %82 = load i32, i32* %81, align 4
  %83 = call i32 (i8*, ...) @printf(i8* getelementptr inbounds ([7 x i8], [7 x i8]* @.str.2, i64 0, i64 0), i32 %77, i32 %82)
  br label %84

84:                                               ; preds = %73, %61
  br label %85

85:                                               ; preds = %84
  %86 = load i32, i32* %6, align 4
  %87 = add nsw i32 %86, 1
  store i32 %87, i32* %6, align 4
  br label %57

88:                                               ; preds = %57
  br label %89

89:                                               ; preds = %88, %53
  %90 = load i32, i32* %1, align 4
  ret i32 %90
}

declare dso_local i32 @__isoc99_scanf(i8*, ...) #1

declare dso_local i32 @printf(i8*, ...) #1

; Function Attrs: nounwind
declare dso_local double @sqrt(double) #2


!llvm.module.flags = !{!0}
!llvm.ident = !{!1}

!0 = !{i32 1, !"wchar_size", i32 4}
!1 = !{!"clang version 10.0.0-4ubuntu1 "}
